target datalayout = "e-m:e-p270:32:32-p271:32:32-p272:64:64-i64:64-i128:128-f80:128-n8:16:32:64-S128"
target triple = "x86_64-unknown-linux-gnu"

%"class.std::__cxx11::basic_string" = type { %"struct.std::__cxx11::basic_string<char>::_Alloc_hider", i64, %union.anon }
%"struct.std::__cxx11::basic_string<char>::_Alloc_hider" = type { ptr }
%union.anon = type { i64, [8 x i8] }
%"class.std::fpos" = type { i64, %struct.__mbstate_t }
%struct.__mbstate_t = type { i32, %union.anon.0 }
%union.anon.0 = type { i32 }
%"class.Imf_3_2::StdOFStream" = type <{ %"class.Imf_3_2::OStream", ptr, i8, [7 x i8] }>
%"class.Imf_3_2::OStream" = type { ptr, %"class.std::__cxx11::basic_string" }

; Function Attrs: mustprogress nounwind uwtable
define linkonce_odr hidden void @_ZNSt4fposI11__mbstate_tEC2El(ptr noundef nonnull align 8 dereferenceable(16) %this, i64 noundef %__off) unnamed_addr #5 comdat align 2 {
entry:
  %this.addr = alloca ptr, align 8
  %__off.addr = alloca i64, align 8
  store ptr %this, ptr %this.addr, align 8
  store i64 %__off, ptr %__off.addr, align 8
  %this1 = load ptr, ptr %this.addr, align 8
  %_M_off = getelementptr inbounds %"class.std::fpos", ptr %this1, i32 0, i32 0
  %0 = load i64, ptr %__off.addr, align 8
  store i64 %0, ptr %_M_off, align 8
  %_M_state = getelementptr inbounds %"class.std::fpos", ptr %this1, i32 0, i32 1
  call void @llvm.memset.p0.i64(ptr align 8 %_M_state, i8 0, i64 8, i1 false)
  ret void
}

; Function Attrs: mustprogress uwtable
define void @_ZN7Imf_3_211StdOFStream5seekpEm(ptr noundef nonnull align 8 dereferenceable(49) %this, i64 noundef %pos) unnamed_addr #4 align 2 {
entry:
  %this.addr = alloca ptr, align 8
  %pos.addr = alloca i64, align 8
  %agg.tmp = alloca %"class.std::fpos", align 8
  store ptr %this, ptr %this.addr, align 8
  store i64 %pos, ptr %pos.addr, align 8
  %this1 = load ptr, ptr %this.addr, align 8
  %_os = getelementptr inbounds %"class.Imf_3_2::StdOFStream", ptr %this1, i32 0, i32 1
  %0 = load ptr, ptr %_os, align 8
  %1 = load i64, ptr %pos.addr, align 8
  call void @_ZNSt4fposI11__mbstate_tEC2El(ptr noundef nonnull align 8 dereferenceable(16) %agg.tmp, i64 noundef %1)
  %2 = getelementptr inbounds { i64, i64 }, ptr %agg.tmp, i32 0, i32 0
  %3 = load i64, ptr %2, align 8
  %4 = getelementptr inbounds { i64, i64 }, ptr %agg.tmp, i32 0, i32 1
  %5 = load i64, ptr %4, align 8
  %call = call noundef nonnull align 8 dereferenceable(8) ptr @_ZNSo5seekpESt4fposI11__mbstate_tE(ptr noundef nonnull align 8 dereferenceable(8) %0, i64 %3, i64 %5)
  %_os2 = getelementptr inbounds %"class.Imf_3_2::StdOFStream", ptr %this1, i32 0, i32 1
  %6 = load ptr, ptr %_os2, align 8
  call void @_ZN7Imf_3_212_GLOBAL__N_110checkErrorERSo(ptr noundef nonnull align 8 dereferenceable(8) %6)
  ret void
}