; Function Attrs: mustprogress uwtable
define void @_ZN7Imf_3_211StdOFStream5seekpEm(ptr nocapture noundef nonnull readonly align 8 dereferenceable(49) %this, i64 noundef %pos) unnamed_addr #3 align 2 {
entry:
  %_os = getelementptr inbounds i8, ptr %this, i64 40
  %0 = load ptr, ptr %_os, align 8
  %call = tail call noundef nonnull align 8 dereferenceable(8) ptr @_ZNSo5seekpESt4fposI11__mbstate_tE(ptr noundef nonnull align 8 dereferenceable(8) %0, i64 %pos, i64 0)
  %1 = load ptr, ptr %_os, align 8
  tail call fastcc void @_ZN7Imf_3_212_GLOBAL__N_110checkErrorERSo(ptr noundef nonnull align 8 dereferenceable(8) %1)
  ret void
}